target datalayout = "e-m:e-p270:32:32-p271:32:32-p272:64:64-i64:64-i128:128-f80:128-n8:16:32:64-S128"
target triple = "x86_64-pc-linux-gnu"

%struct.git_istream = type { ptr, ptr, ptr, i64, %struct.git_zstream, i32, %union.anon }
%struct.git_zstream = type { %struct.z_stream_s, i64, i64, i64, i64, ptr, ptr }
%struct.z_stream_s = type { ptr, i32, i64, ptr, i32, i64, ptr, ptr, ptr, ptr, ptr, i32, i64, i64 }
%union.anon = type { %struct.filtered_istream }
%struct.filtered_istream = type { ptr, ptr, [16384 x i8], [16384 x i8], i32, i32, i32, i32, i32 }
%struct.object_info = type { ptr, ptr, ptr, ptr, ptr, ptr, i32, %union.anon.3 }
%union.anon.3 = type { %struct.anon.4 }
%struct.anon.4 = type { ptr, i64, i32 }
%struct.anon = type { ptr, i64 }

; Function Attrs: nounwind uwtable
define internal i32 @open_istream_incore(ptr noundef %0, ptr noundef %1, ptr noundef %2, ptr noundef %3) #0 {
  %5 = alloca ptr, align 8
  %6 = alloca ptr, align 8
  %7 = alloca ptr, align 8
  %8 = alloca ptr, align 8
  %9 = alloca %struct.object_info, align 8
  store ptr %0, ptr %5, align 8, !tbaa !4
  store ptr %1, ptr %6, align 8, !tbaa !21
  store ptr %2, ptr %7, align 8, !tbaa !23
  store ptr %3, ptr %8, align 8, !tbaa !18
  call void @llvm.lifetime.start.p0(i64 80, ptr %9) #8
  call void @llvm.memset.p0.i64(ptr align 8 %9, i8 0, i64 80, i1 false)
  %10 = load ptr, ptr %5, align 8, !tbaa !4
  %11 = getelementptr inbounds nuw %struct.git_istream, ptr %10, i32 0, i32 6
  %12 = getelementptr inbounds nuw %struct.anon, ptr %11, i32 0, i32 1
  store i64 0, ptr %12, align 8, !tbaa !69
  %13 = load ptr, ptr %5, align 8, !tbaa !4
  %14 = getelementptr inbounds nuw %struct.git_istream, ptr %13, i32 0, i32 1
  store ptr @close_istream_incore, ptr %14, align 8, !tbaa !9
  %15 = load ptr, ptr %5, align 8, !tbaa !4
  %16 = getelementptr inbounds nuw %struct.git_istream, ptr %15, i32 0, i32 2
  store ptr @read_istream_incore, ptr %16, align 8, !tbaa !20
  %17 = load ptr, ptr %8, align 8, !tbaa !18
  %18 = getelementptr inbounds nuw %struct.object_info, ptr %9, i32 0, i32 0
  store ptr %17, ptr %18, align 8, !tbaa !64
  %19 = load ptr, ptr %5, align 8, !tbaa !4
  %20 = getelementptr inbounds nuw %struct.git_istream, ptr %19, i32 0, i32 3
  %21 = getelementptr inbounds nuw %struct.object_info, ptr %9, i32 0, i32 1
  store ptr %20, ptr %21, align 8, !tbaa !67
  %22 = load ptr, ptr %5, align 8, !tbaa !4
  %23 = getelementptr inbounds nuw %struct.git_istream, ptr %22, i32 0, i32 6
  %24 = getelementptr inbounds nuw %struct.anon, ptr %23, i32 0, i32 0
  %25 = getelementptr inbounds nuw %struct.object_info, ptr %9, i32 0, i32 5
  store ptr %24, ptr %25, align 8, !tbaa !70
  %26 = load ptr, ptr %6, align 8, !tbaa !21
  %27 = load ptr, ptr %7, align 8, !tbaa !23
  %28 = call i32 @oid_object_info_extended(ptr noundef %26, ptr noundef %27, ptr noundef %9, i32 noundef 32)
  call void @llvm.lifetime.end.p0(i64 80, ptr %9) #8
  ret i32 %28
}