; Function Attrs: nounwind uwtable
define internal i32 @open_istream_incore(ptr noundef initializes((8, 24), (208, 216)) %0, ptr noundef %1, ptr noundef %2, ptr noundef %3) #0 {
  %5 = alloca %struct.object_info, align 8
  call void @llvm.lifetime.start.p0(i64 80, ptr nonnull %5) #11
  %6 = getelementptr inbounds nuw i8, ptr %5, i64 16
  call void @llvm.memset.p0.i64(ptr noundef nonnull align 8 dereferenceable(80) %6, i8 0, i64 64, i1 false)
  %7 = getelementptr inbounds nuw i8, ptr %0, i64 200
  %8 = getelementptr inbounds nuw i8, ptr %0, i64 208
  store i64 0, ptr %8, align 8, !tbaa !56
  %9 = getelementptr inbounds nuw i8, ptr %0, i64 8
  store ptr @close_istream_incore, ptr %9, align 8, !tbaa !4
  %10 = getelementptr inbounds nuw i8, ptr %0, i64 16
  store ptr @read_istream_incore, ptr %10, align 8, !tbaa !15
  store ptr %3, ptr %5, align 8, !tbaa !49
  %11 = getelementptr inbounds nuw i8, ptr %0, i64 24
  %12 = getelementptr inbounds nuw i8, ptr %5, i64 8
  store ptr %11, ptr %12, align 8, !tbaa !54
  %13 = getelementptr inbounds nuw i8, ptr %5, i64 40
  store ptr %7, ptr %13, align 8, !tbaa !59
  %14 = call i32 @oid_object_info_extended(ptr noundef %1, ptr noundef %2, ptr noundef nonnull %5, i32 noundef 32) #11
  call void @llvm.lifetime.end.p0(i64 80, ptr nonnull %5) #11
  ret i32 %14
}